; ModuleID = '44/1229.c'
source_filename = "44/1229.c"
target datalayout = "e-m:e-p270:32:32-p271:32:32-p272:64:64-i64:64-f80:128-n8:16:32:64-S128"
target triple = "x86_64-pc-linux-gnu"

@.str = private unnamed_addr constant [3 x i8] c"%d\00", align 1
@.str.1 = private unnamed_addr constant [4 x i8] c"%d\0A\00", align 1

; Function Attrs: noinline nounwind uwtable
define dso_local void @main() #0 {
  %1 = alloca i32, align 4
  %2 = alloca i32, align 4
  %3 = alloca i32, align 4
  store i32 0, i32* %3, align 4
  store i32 0, i32* %1, align 4
  br label %4

4:                                                ; preds = %13, %0
  %5 = load i32, i32* %1, align 4
  %6 = icmp slt i32 %5, 6
  br i1 %6, label %7, label %16

7:                                                ; preds = %4
  %8 = call i32 (i8*, ...) @__isoc99_scanf(i8* getelementptr inbounds ([3 x i8], [3 x i8]* @.str, i64 0, i64 0), i32* %3)
  %9 = load i32, i32* %3, align 4
  %10 = call i32 @reverse(i32 %9)
  store i32 %10, i32* %2, align 4
  %11 = load i32, i32* %2, align 4
  %12 = call i32 (i8*, ...) @printf(i8* getelementptr inbounds ([4 x i8], [4 x i8]* @.str.1, i64 0, i64 0), i32 %11)
  br label %13

13:                                               ; preds = %7
  %14 = load i32, i32* %1, align 4
  %15 = add nsw i32 %14, 1
  store i32 %15, i32* %1, align 4
  br label %4

16:                                               ; preds = %4
  ret void
}

declare dso_local i32 @__isoc99_scanf(i8*, ...) #1

; Function Attrs: noinline nounwind uwtable
define dso_local i32 @reverse(i32 %0) #0 {
  %2 = alloca i32, align 4
  %3 = alloca i32, align 4
  %4 = alloca i32, align 4
  %5 = alloca i32, align 4
  store i32 %0, i32* %2, align 4
  store i32 0, i32* %3, align 4
  store i32 1, i32* %4, align 4
  %6 = load i32, i32* %2, align 4
  %7 = icmp slt i32 %6, 0
  br i1 %7, label %8, label %11

8:                                                ; preds = %1
  store i32 0, i32* %4, align 4
  %9 = load i32, i32* %2, align 4
  %10 = sub nsw i32 0, %9
  store i32 %10, i32* %2, align 4
  br label %11

11:                                               ; preds = %8, %1
  %12 = load i32, i32* %2, align 4
  %13 = sitofp i32 %12 to double
  %14 = call double @log10(double %13) #3
  %15 = fptosi double %14 to i32
  store i32 %15, i32* %5, align 4
  br label %16

16:                                               ; preds = %27, %11
  %17 = load i32, i32* %5, align 4
  %18 = icmp sge i32 %17, 0
  br i1 %18, label %19, label %30

19:                                               ; preds = %16
  %20 = load i32, i32* %3, align 4
  %21 = mul nsw i32 %20, 10
  %22 = load i32, i32* %2, align 4
  %23 = srem i32 %22, 10
  %24 = add nsw i32 %21, %23
  store i32 %24, i32* %3, align 4
  %25 = load i32, i32* %2, align 4
  %26 = sdiv i32 %25, 10
  store i32 %26, i32* %2, align 4
  br label %27

27:                                               ; preds = %19
  %28 = load i32, i32* %5, align 4
  %29 = add nsw i32 %28, -1
  store i32 %29, i32* %5, align 4
  br label %16

30:                                               ; preds = %16
  %31 = load i32, i32* %4, align 4
  %32 = icmp eq i32 %31, 0
  br i1 %32, label %33, label %36

33:                                               ; preds = %30
  %34 = load i32, i32* %3, align 4
  %35 = sub nsw i32 0, %34
  store i32 %35, i32* %3, align 4
  br label %36

36:                                               ; preds = %33, %30
  %37 = load i32, i32* %3, align 4
  ret i32 %37
}

declare dso_local i32 @printf(i8*, ...) #1

; Function Attrs: nounwind
declare dso_local double @log10(double) #2


!llvm.module.flags = !{!0}
!llvm.ident = !{!1}

!0 = !{i32 1, !"wchar_size", i32 4}
!1 = !{!"clang version 10.0.0-4ubuntu1 "}
